target datalayout = "e-m:e-p270:32:32-p271:32:32-p272:64:64-i64:64-i128:128-f80:128-n8:16:32:64-S128"
target triple = "x86_64-pc-linux-gnu"

%struct.H5FD_multi_t = type { %struct.H5FD_t, %struct.H5FD_multi_fapl_t, [7 x i64], [7 x ptr], [7 x i64], i32, ptr }
%struct.H5FD_t = type { i64, ptr, i64, i32, i64, i64, i64, i64, i64, i8 }
%struct.H5FD_multi_fapl_t = type { [7 x i32], [7 x i64], [7 x ptr], [7 x i64], i8 }

; Function Attrs: nounwind uwtable
define internal i32 @H5FD_multi_cmp(ptr noundef %0, ptr noundef %1) #0 {
  %3 = alloca i32, align 4
  %4 = alloca ptr, align 8
  %5 = alloca ptr, align 8
  %6 = alloca ptr, align 8
  %7 = alloca ptr, align 8
  %8 = alloca i32, align 4
  %9 = alloca i32, align 4
  %10 = alloca i32, align 4
  %11 = alloca i32, align 4
  store ptr %0, ptr %4, align 8, !tbaa !3
  store ptr %1, ptr %5, align 8, !tbaa !3
  call void @llvm.lifetime.start.p0(i64 8, ptr %6) #9
  %12 = load ptr, ptr %4, align 8, !tbaa !3
  store ptr %12, ptr %6, align 8, !tbaa !8
  call void @llvm.lifetime.start.p0(i64 8, ptr %7) #9
  %13 = load ptr, ptr %5, align 8, !tbaa !3
  store ptr %13, ptr %7, align 8, !tbaa !8
  call void @llvm.lifetime.start.p0(i64 4, ptr %8) #9
  store i32 0, ptr %8, align 4, !tbaa !10
  call void @llvm.lifetime.start.p0(i64 4, ptr %9) #9
  store i32 0, ptr %9, align 4, !tbaa !10
  %14 = call i32 @H5Eclear2(i64 noundef 0)
  call void @llvm.lifetime.start.p0(i64 4, ptr %10) #9
  store i32 0, ptr %10, align 4, !tbaa !10
  br label %15

15:                                               ; preds = %60, %2
  %16 = load i32, ptr %10, align 4, !tbaa !10
  %17 = icmp slt i32 %16, 7
  br i1 %17, label %18, label %63

18:                                               ; preds = %15
  %19 = load i32, ptr %10, align 4, !tbaa !10
  store i32 %19, ptr %8, align 4, !tbaa !10
  %20 = load ptr, ptr %6, align 8, !tbaa !8
  %21 = getelementptr inbounds nuw %struct.H5FD_multi_t, ptr %20, i32 0, i32 3
  %22 = load i32, ptr %10, align 4, !tbaa !10
  %23 = sext i32 %22 to i64
  %24 = getelementptr inbounds [7 x ptr], ptr %21, i64 0, i64 %23
  %25 = load ptr, ptr %24, align 8, !tbaa !3
  %26 = icmp ne ptr %25, null
  br i1 %26, label %27, label %36

27:                                               ; preds = %18
  %28 = load ptr, ptr %7, align 8, !tbaa !8
  %29 = getelementptr inbounds nuw %struct.H5FD_multi_t, ptr %28, i32 0, i32 3
  %30 = load i32, ptr %10, align 4, !tbaa !10
  %31 = sext i32 %30 to i64
  %32 = getelementptr inbounds [7 x ptr], ptr %29, i64 0, i64 %31
  %33 = load ptr, ptr %32, align 8, !tbaa !3
  %34 = icmp ne ptr %33, null
  br i1 %34, label %35, label %36

35:                                               ; preds = %27
  br label %63

36:                                               ; preds = %27, %18
  %37 = load i32, ptr %9, align 4, !tbaa !10
  %38 = icmp ne i32 %37, 0
  br i1 %38, label %59, label %39

39:                                               ; preds = %36
  %40 = load ptr, ptr %6, align 8, !tbaa !8
  %41 = getelementptr inbounds nuw %struct.H5FD_multi_t, ptr %40, i32 0, i32 3
  %42 = load i32, ptr %10, align 4, !tbaa !10
  %43 = sext i32 %42 to i64
  %44 = getelementptr inbounds [7 x ptr], ptr %41, i64 0, i64 %43
  %45 = load ptr, ptr %44, align 8, !tbaa !3
  %46 = icmp ne ptr %45, null
  br i1 %46, label %47, label %48

47:                                               ; preds = %39
  store i32 -1, ptr %9, align 4, !tbaa !10
  br label %58

48:                                               ; preds = %39
  %49 = load ptr, ptr %7, align 8, !tbaa !8
  %50 = getelementptr inbounds nuw %struct.H5FD_multi_t, ptr %49, i32 0, i32 3
  %51 = load i32, ptr %10, align 4, !tbaa !10
  %52 = sext i32 %51 to i64
  %53 = getelementptr inbounds [7 x ptr], ptr %50, i64 0, i64 %52
  %54 = load ptr, ptr %53, align 8, !tbaa !3
  %55 = icmp ne ptr %54, null
  br i1 %55, label %56, label %57

56:                                               ; preds = %48
  store i32 1, ptr %9, align 4, !tbaa !10
  br label %57

57:                                               ; preds = %56, %48
  br label %58

58:                                               ; preds = %57, %47
  br label %59

59:                                               ; preds = %58, %36
  br label %60

60:                                               ; preds = %59
  %61 = load i32, ptr %10, align 4, !tbaa !10
  %62 = add nsw i32 %61, 1
  store i32 %62, ptr %10, align 4, !tbaa !10
  br label %15, !llvm.loop !58

63:                                               ; preds = %35, %15
  call void @llvm.lifetime.end.p0(i64 4, ptr %10) #9
  %64 = load i32, ptr %8, align 4, !tbaa !10
  %65 = icmp sge i32 %64, 7
  br i1 %65, label %66, label %68

66:                                               ; preds = %63
  %67 = load i32, ptr %9, align 4, !tbaa !10
  store i32 %67, ptr %3, align 4
  store i32 1, ptr %11, align 4
  br label %82

68:                                               ; preds = %63
  %69 = load ptr, ptr %6, align 8, !tbaa !8
  %70 = getelementptr inbounds nuw %struct.H5FD_multi_t, ptr %69, i32 0, i32 3
  %71 = load i32, ptr %8, align 4, !tbaa !10
  %72 = sext i32 %71 to i64
  %73 = getelementptr inbounds [7 x ptr], ptr %70, i64 0, i64 %72
  %74 = load ptr, ptr %73, align 8, !tbaa !3
  %75 = load ptr, ptr %7, align 8, !tbaa !8
  %76 = getelementptr inbounds nuw %struct.H5FD_multi_t, ptr %75, i32 0, i32 3
  %77 = load i32, ptr %8, align 4, !tbaa !10
  %78 = sext i32 %77 to i64
  %79 = getelementptr inbounds [7 x ptr], ptr %76, i64 0, i64 %78
  %80 = load ptr, ptr %79, align 8, !tbaa !3
  %81 = call i32 @H5FDcmp(ptr noundef %74, ptr noundef %80)
  store i32 %81, ptr %3, align 4
  store i32 1, ptr %11, align 4
  br label %82

82:                                               ; preds = %68, %66
  call void @llvm.lifetime.end.p0(i64 4, ptr %9) #9
  call void @llvm.lifetime.end.p0(i64 4, ptr %8) #9
  call void @llvm.lifetime.end.p0(i64 8, ptr %7) #9
  call void @llvm.lifetime.end.p0(i64 8, ptr %6) #9
  %83 = load i32, ptr %3, align 4
  ret i32 %83
}