; Function Attrs: nounwind uwtable
define internal i32 @H5FD_multi_cmp(ptr noundef readonly captures(none) %0, ptr noundef readonly captures(none) %1) #0 {
  %3 = tail call i32 @H5Eclear2(i64 noundef 0) #15
  %4 = getelementptr inbounds nuw i8, ptr %1, i64 344
  %5 = getelementptr inbounds nuw i8, ptr %0, i64 344
  br label %.backedge

.backedge:                                        ; preds = %.backedge.backedge, %2
  %indvars.iv = phi i64 [ 0, %2 ], [ %indvars.iv.be, %.backedge.backedge ]
  %6 = getelementptr inbounds nuw [7 x ptr], ptr %5, i64 0, i64 %indvars.iv
  %7 = load ptr, ptr %6, align 8, !tbaa !15
  %.not = icmp eq ptr %7, null
  br i1 %.not, label %.thread29, label %8

8:                                                ; preds = %.backedge
  %9 = getelementptr inbounds nuw [7 x ptr], ptr %4, i64 0, i64 %indvars.iv
  %10 = load ptr, ptr %9, align 8, !tbaa !15
  %.not24 = icmp ne ptr %10, null
  %indvars.iv.next = add nuw nsw i64 %indvars.iv, 1
  %exitcond.not = icmp eq i64 %indvars.iv.next, 7
  %or.cond = select i1 %.not24, i1 true, i1 %exitcond.not
  br i1 %or.cond, label %11, label %.backedge.backedge

.thread29:                                        ; preds = %.backedge
  %indvars.iv.next.old = add nuw nsw i64 %indvars.iv, 1
  %exitcond.not.old = icmp eq i64 %indvars.iv.next.old, 7
  br i1 %exitcond.not.old, label %11, label %.backedge.backedge

.backedge.backedge:                               ; preds = %.thread29, %8
  %indvars.iv.be = phi i64 [ %indvars.iv.next.old, %.thread29 ], [ %indvars.iv.next, %8 ]
  br label %.backedge, !llvm.loop !52

11:                                               ; preds = %8, %.thread29
  %12 = and i64 %indvars.iv, 4294967295
  %13 = getelementptr inbounds nuw [7 x ptr], ptr %5, i64 0, i64 %12
  %14 = load ptr, ptr %13, align 8, !tbaa !15
  %15 = getelementptr inbounds nuw [7 x ptr], ptr %4, i64 0, i64 %12
  %16 = load ptr, ptr %15, align 8, !tbaa !15
  %17 = tail call i32 @H5FDcmp(ptr noundef %14, ptr noundef %16) #15
  ret i32 %17
}